target datalayout = "e-m:e-p270:32:32-p271:32:32-p272:64:64-i64:64-i128:128-f80:128-n8:16:32:64-S128"
target triple = "x86_64-pc-linux-gnu"

; Function Attrs: alwaysinline nounwind uwtable
define internal void @mbedtls_put_unaligned_uint64(ptr noundef %0, i64 noundef %1) #5 {
  %3 = alloca ptr, align 8
  %4 = alloca i64, align 8
  store ptr %0, ptr %3, align 8, !tbaa !22
  store i64 %1, ptr %4, align 8, !tbaa !27
  %5 = load ptr, ptr %3, align 8, !tbaa !22
  call void @llvm.memcpy.p0.p0.i64(ptr align 1 %5, ptr align 8 %4, i64 8, i1 false)
  ret void
}

; Function Attrs: alwaysinline nounwind uwtable
define internal i64 @mbedtls_get_unaligned_uint64(ptr noundef %0) #5 {
  %2 = alloca ptr, align 8
  %3 = alloca i64, align 8
  store ptr %0, ptr %2, align 8, !tbaa !22
  call void @llvm.lifetime.start.p0(i64 8, ptr %3) #8
  %4 = load ptr, ptr %2, align 8, !tbaa !22
  call void @llvm.memcpy.p0.p0.i64(ptr align 8 %3, ptr align 1 %4, i64 8, i1 false)
  %5 = load i64, ptr %3, align 8, !tbaa !27
  call void @llvm.lifetime.end.p0(i64 8, ptr %3) #8
  ret i64 %5
}

; Function Attrs: alwaysinline nounwind uwtable
define internal void @mbedtls_xor(ptr noundef %0, ptr noundef %1, ptr noundef %2, i64 noundef %3) #5 {
  %5 = alloca ptr, align 8
  %6 = alloca ptr, align 8
  %7 = alloca ptr, align 8
  %8 = alloca i64, align 8
  %9 = alloca i64, align 8
  %10 = alloca i64, align 8
  store ptr %0, ptr %5, align 8, !tbaa !10
  store ptr %1, ptr %6, align 8, !tbaa !10
  store ptr %2, ptr %7, align 8, !tbaa !10
  store i64 %3, ptr %8, align 8, !tbaa !27
  call void @llvm.lifetime.start.p0(i64 8, ptr %9) #8
  store i64 0, ptr %9, align 8, !tbaa !27
  br label %11

11:                                               ; preds = %30, %4
  %12 = load i64, ptr %9, align 8, !tbaa !27
  %13 = add i64 %12, 8
  %14 = load i64, ptr %8, align 8, !tbaa !27
  %15 = icmp ule i64 %13, %14
  br i1 %15, label %16, label %33

16:                                               ; preds = %11
  call void @llvm.lifetime.start.p0(i64 8, ptr %10) #8
  %17 = load ptr, ptr %6, align 8, !tbaa !10
  %18 = load i64, ptr %9, align 8, !tbaa !27
  %19 = getelementptr inbounds nuw i8, ptr %17, i64 %18
  %20 = call i64 @mbedtls_get_unaligned_uint64(ptr noundef %19)
  %21 = load ptr, ptr %7, align 8, !tbaa !10
  %22 = load i64, ptr %9, align 8, !tbaa !27
  %23 = getelementptr inbounds nuw i8, ptr %21, i64 %22
  %24 = call i64 @mbedtls_get_unaligned_uint64(ptr noundef %23)
  %25 = xor i64 %20, %24
  store i64 %25, ptr %10, align 8, !tbaa !27
  %26 = load ptr, ptr %5, align 8, !tbaa !10
  %27 = load i64, ptr %9, align 8, !tbaa !27
  %28 = getelementptr inbounds nuw i8, ptr %26, i64 %27
  %29 = load i64, ptr %10, align 8, !tbaa !27
  call void @mbedtls_put_unaligned_uint64(ptr noundef %28, i64 noundef %29)
  call void @llvm.lifetime.end.p0(i64 8, ptr %10) #8
  br label %30

30:                                               ; preds = %16
  %31 = load i64, ptr %9, align 8, !tbaa !27
  %32 = add i64 %31, 8
  store i64 %32, ptr %9, align 8, !tbaa !27
  br label %11, !llvm.loop !31

33:                                               ; preds = %11
  br label %34

34:                                               ; preds = %54, %33
  %35 = load i64, ptr %9, align 8, !tbaa !27
  %36 = load i64, ptr %8, align 8, !tbaa !27
  %37 = icmp ult i64 %35, %36
  br i1 %37, label %38, label %57

38:                                               ; preds = %34
  %39 = load ptr, ptr %6, align 8, !tbaa !10
  %40 = load i64, ptr %9, align 8, !tbaa !27
  %41 = getelementptr inbounds nuw i8, ptr %39, i64 %40
  %42 = load i8, ptr %41, align 1, !tbaa !14
  %43 = zext i8 %42 to i32
  %44 = load ptr, ptr %7, align 8, !tbaa !10
  %45 = load i64, ptr %9, align 8, !tbaa !27
  %46 = getelementptr inbounds nuw i8, ptr %44, i64 %45
  %47 = load i8, ptr %46, align 1, !tbaa !14
  %48 = zext i8 %47 to i32
  %49 = xor i32 %43, %48
  %50 = trunc i32 %49 to i8
  %51 = load ptr, ptr %5, align 8, !tbaa !10
  %52 = load i64, ptr %9, align 8, !tbaa !27
  %53 = getelementptr inbounds nuw i8, ptr %51, i64 %52
  store i8 %50, ptr %53, align 1, !tbaa !14
  br label %54

54:                                               ; preds = %38
  %55 = load i64, ptr %9, align 8, !tbaa !27
  %56 = add i64 %55, 1
  store i64 %56, ptr %9, align 8, !tbaa !27
  br label %34, !llvm.loop !32

57:                                               ; preds = %34
  call void @llvm.lifetime.end.p0(i64 8, ptr %9) #8
  ret void
}

; Function Attrs: nounwind uwtable
define hidden i32 @mbedtls_des_crypt_cbc(ptr noundef %0, i32 noundef %1, i64 noundef %2, ptr noundef %3, ptr noundef %4, ptr noundef %5) #0 {
  %7 = alloca i32, align 4
  %8 = alloca ptr, align 8
  %9 = alloca i32, align 4
  %10 = alloca i64, align 8
  %11 = alloca ptr, align 8
  %12 = alloca ptr, align 8
  %13 = alloca ptr, align 8
  %14 = alloca i32, align 4
  %15 = alloca [8 x i8], align 1
  %16 = alloca i32, align 4
  store ptr %0, ptr %8, align 8, !tbaa !3
  store i32 %1, ptr %9, align 4, !tbaa !12
  store i64 %2, ptr %10, align 8, !tbaa !27
  store ptr %3, ptr %11, align 8, !tbaa !10
  store ptr %4, ptr %12, align 8, !tbaa !10
  store ptr %5, ptr %13, align 8, !tbaa !10
  call void @llvm.lifetime.start.p0(i64 4, ptr %14) #8
  store i32 -110, ptr %14, align 4, !tbaa !12
  call void @llvm.lifetime.start.p0(i64 8, ptr %15) #8
  %17 = load i64, ptr %10, align 8, !tbaa !27
  %18 = urem i64 %17, 8
  %19 = icmp ne i64 %18, 0
  br i1 %19, label %20, label %21

20:                                               ; preds = %6
  store i32 -50, ptr %7, align 4
  store i32 1, ptr %16, align 4
  br label %79

21:                                               ; preds = %6
  %22 = load i32, ptr %9, align 4, !tbaa !12
  %23 = icmp eq i32 %22, 1
  br i1 %23, label %24, label %49

24:                                               ; preds = %21
  br label %25

25:                                               ; preds = %39, %24
  %26 = load i64, ptr %10, align 8, !tbaa !27
  %27 = icmp ugt i64 %26, 0
  br i1 %27, label %28, label %48

28:                                               ; preds = %25
  %29 = load ptr, ptr %13, align 8, !tbaa !10
  %30 = load ptr, ptr %12, align 8, !tbaa !10
  %31 = load ptr, ptr %11, align 8, !tbaa !10
  call void @mbedtls_xor(ptr noundef %29, ptr noundef %30, ptr noundef %31, i64 noundef 8)
  %32 = load ptr, ptr %8, align 8, !tbaa !3
  %33 = load ptr, ptr %13, align 8, !tbaa !10
  %34 = load ptr, ptr %13, align 8, !tbaa !10
  %35 = call i32 @mbedtls_des_crypt_ecb(ptr noundef %32, ptr noundef %33, ptr noundef %34)
  store i32 %35, ptr %14, align 4, !tbaa !12
  %36 = load i32, ptr %14, align 4, !tbaa !12
  %37 = icmp ne i32 %36, 0
  br i1 %37, label %38, label %39

38:                                               ; preds = %28
  br label %77

39:                                               ; preds = %28
  %40 = load ptr, ptr %11, align 8, !tbaa !10
  %41 = load ptr, ptr %13, align 8, !tbaa !10
  call void @llvm.memcpy.p0.p0.i64(ptr align 1 %40, ptr align 1 %41, i64 8, i1 false)
  %42 = load ptr, ptr %12, align 8, !tbaa !10
  %43 = getelementptr inbounds i8, ptr %42, i64 8
  store ptr %43, ptr %12, align 8, !tbaa !10
  %44 = load ptr, ptr %13, align 8, !tbaa !10
  %45 = getelementptr inbounds i8, ptr %44, i64 8
  store ptr %45, ptr %13, align 8, !tbaa !10
  %46 = load i64, ptr %10, align 8, !tbaa !27
  %47 = sub i64 %46, 8
  store i64 %47, ptr %10, align 8, !tbaa !27
  br label %25, !llvm.loop !29

48:                                               ; preds = %25
  br label %76

49:                                               ; preds = %21
  br label %50

50:                                               ; preds = %63, %49
  %51 = load i64, ptr %10, align 8, !tbaa !27
  %52 = icmp ugt i64 %51, 0
  br i1 %52, label %53, label %75

53:                                               ; preds = %50
  %54 = getelementptr inbounds [8 x i8], ptr %15, i64 0, i64 0
  %55 = load ptr, ptr %12, align 8, !tbaa !10
  call void @llvm.memcpy.p0.p0.i64(ptr align 1 %54, ptr align 1 %55, i64 8, i1 false)
  %56 = load ptr, ptr %8, align 8, !tbaa !3
  %57 = load ptr, ptr %12, align 8, !tbaa !10
  %58 = load ptr, ptr %13, align 8, !tbaa !10
  %59 = call i32 @mbedtls_des_crypt_ecb(ptr noundef %56, ptr noundef %57, ptr noundef %58)
  store i32 %59, ptr %14, align 4, !tbaa !12
  %60 = load i32, ptr %14, align 4, !tbaa !12
  %61 = icmp ne i32 %60, 0
  br i1 %61, label %62, label %63

62:                                               ; preds = %53
  br label %77

63:                                               ; preds = %53
  %64 = load ptr, ptr %13, align 8, !tbaa !10
  %65 = load ptr, ptr %13, align 8, !tbaa !10
  %66 = load ptr, ptr %11, align 8, !tbaa !10
  call void @mbedtls_xor(ptr noundef %64, ptr noundef %65, ptr noundef %66, i64 noundef 8)
  %67 = load ptr, ptr %11, align 8, !tbaa !10
  %68 = getelementptr inbounds [8 x i8], ptr %15, i64 0, i64 0
  call void @llvm.memcpy.p0.p0.i64(ptr align 1 %67, ptr align 1 %68, i64 8, i1 false)
  %69 = load ptr, ptr %12, align 8, !tbaa !10
  %70 = getelementptr inbounds i8, ptr %69, i64 8
  store ptr %70, ptr %12, align 8, !tbaa !10
  %71 = load ptr, ptr %13, align 8, !tbaa !10
  %72 = getelementptr inbounds i8, ptr %71, i64 8
  store ptr %72, ptr %13, align 8, !tbaa !10
  %73 = load i64, ptr %10, align 8, !tbaa !27
  %74 = sub i64 %73, 8
  store i64 %74, ptr %10, align 8, !tbaa !27
  br label %50, !llvm.loop !30

75:                                               ; preds = %50
  br label %76

76:                                               ; preds = %75, %48
  store i32 0, ptr %14, align 4, !tbaa !12
  br label %77

77:                                               ; preds = %76, %62, %38
  %78 = load i32, ptr %14, align 4, !tbaa !12
  store i32 %78, ptr %7, align 4
  store i32 1, ptr %16, align 4
  br label %79

79:                                               ; preds = %77, %20
  call void @llvm.lifetime.end.p0(i64 8, ptr %15) #8
  call void @llvm.lifetime.end.p0(i64 4, ptr %14) #8
  %80 = load i32, ptr %7, align 4
  ret i32 %80
}