; Function Attrs: nofree norecurse nosync nounwind memory(argmem: readwrite) uwtable
define hidden range(i32 -50, 1) i32 @mbedtls_des_crypt_cbc(ptr noundef readonly captures(none) %0, i32 noundef %1, i64 noundef %2, ptr noundef captures(none) %3, ptr noundef readonly captures(none) %4, ptr noundef captures(none) %5) local_unnamed_addr #4 {
  %7 = and i64 %2, 7
  %.not = icmp eq i64 %7, 0
  br i1 %.not, label %8, label %.loopexit

8:                                                ; preds = %6
  %9 = icmp eq i32 %1, 1
  %.not3960 = icmp eq i64 %2, 0
  br i1 %9, label %.preheader47, label %.preheader49

.preheader49:                                     ; preds = %8
  br i1 %.not3960, label %.loopexit, label %.lr.ph

.preheader47:                                     ; preds = %8
  br i1 %.not3960, label %.loopexit, label %.preheader46.preheader

.preheader46.preheader:                           ; preds = %.preheader47
  %.0.copyload.i44.pre = load i64, ptr %3, align 1
  br label %.preheader46

.preheader46:                                     ; preds = %.preheader46.preheader, %.preheader46
  %.0.copyload.i44 = phi i64 [ %12, %.preheader46 ], [ %.0.copyload.i44.pre, %.preheader46.preheader ]
  %.03163 = phi ptr [ %14, %.preheader46 ], [ %5, %.preheader46.preheader ]
  %.03262 = phi ptr [ %13, %.preheader46 ], [ %4, %.preheader46.preheader ]
  %.03461 = phi i64 [ %15, %.preheader46 ], [ %2, %.preheader46.preheader ]
  %.0.copyload.i45 = load i64, ptr %.03262, align 1
  %10 = xor i64 %.0.copyload.i44, %.0.copyload.i45
  store i64 %10, ptr %.03163, align 1
  %11 = tail call i32 @mbedtls_des_crypt_ecb(ptr noundef %0, ptr noundef nonnull %.03163, ptr noundef nonnull %.03163)
  %12 = load i64, ptr %.03163, align 1
  store i64 %12, ptr %3, align 1
  %13 = getelementptr inbounds nuw i8, ptr %.03262, i64 8
  %14 = getelementptr inbounds nuw i8, ptr %.03163, i64 8
  %15 = add i64 %.03461, -8
  %.not39 = icmp eq i64 %15, 0
  br i1 %.not39, label %.loopexit, label %.preheader46, !llvm.loop !17

.lr.ph:                                           ; preds = %.preheader49, %.lr.ph
  %.156 = phi ptr [ %19, %.lr.ph ], [ %5, %.preheader49 ]
  %.13355 = phi ptr [ %18, %.lr.ph ], [ %4, %.preheader49 ]
  %.13554 = phi i64 [ %20, %.lr.ph ], [ %2, %.preheader49 ]
  %.sroa.0.0.copyload = load i64, ptr %.13355, align 1
  %16 = tail call i32 @mbedtls_des_crypt_ecb(ptr noundef %0, ptr noundef nonnull %.13355, ptr noundef %.156)
  %.0.copyload.i43 = load i64, ptr %.156, align 1
  %.0.copyload.i = load i64, ptr %3, align 1
  %17 = xor i64 %.0.copyload.i, %.0.copyload.i43
  store i64 %17, ptr %.156, align 1
  store i64 %.sroa.0.0.copyload, ptr %3, align 1
  %18 = getelementptr inbounds nuw i8, ptr %.13355, i64 8
  %19 = getelementptr inbounds nuw i8, ptr %.156, i64 8
  %20 = add i64 %.13554, -8
  %.not38 = icmp eq i64 %20, 0
  br i1 %.not38, label %.loopexit, label %.lr.ph, !llvm.loop !18

.loopexit:                                        ; preds = %.lr.ph, %.preheader46, %.preheader49, %.preheader47, %6
  %.0 = phi i32 [ -50, %6 ], [ 0, %.preheader47 ], [ 0, %.preheader49 ], [ 0, %.preheader46 ], [ 0, %.lr.ph ]
  ret i32 %.0
}